; Function Attrs: mustprogress uwtable
define void @_ZNK8facebook5velox6common17NegatedBytesRange9serializeEv(ptr noalias sret(%"struct.folly::dynamic") align 8 %agg.result, ptr nocapture noundef nonnull readonly align 8 dereferenceable(24) %this) unnamed_addr #0 align 2 personality ptr @__gxx_personality_v0 {
entry:
  %ref.tmp = alloca %"struct.folly::dynamic", align 8
  tail call void @_ZNK8facebook5velox6common6Filter13serializeBaseESt17basic_string_viewIcSt11char_traitsIcEE(ptr sret(%"struct.folly::dynamic") align 8 %agg.result, ptr noundef nonnull align 8 dereferenceable(16) %this, i64 17, ptr nonnull @.str.14)
  %nonNegated_ = getelementptr inbounds i8, ptr %this, i64 16
  %0 = load ptr, ptr %nonNegated_, align 8
  invoke void @_ZNK8facebook5velox6common10BytesRange9serializeEv(ptr nonnull sret(%"struct.folly::dynamic") align 8 %ref.tmp, ptr noundef nonnull align 8 dereferenceable(96) %0)
          to label %invoke.cont unwind label %lpad

invoke.cont:                                      ; preds = %entry
  %call6 = invoke noundef nonnull align 8 dereferenceable(40) ptr @_ZNR5folly7dynamicixENS_5RangeIPKcEE(ptr noundef nonnull align 8 dereferenceable(40) %agg.result, ptr nonnull @.str.36, ptr nonnull getelementptr inbounds ([11 x i8], ptr @.str.36, i64 0, i64 10))
          to label %invoke.cont5 unwind label %lpad3

invoke.cont5:                                     ; preds = %invoke.cont
  %call7 = call noundef nonnull align 8 dereferenceable(40) ptr @_ZN5folly7dynamicaSEOS0_(ptr noundef nonnull align 8 dereferenceable(40) %call6, ptr noundef nonnull align 8 dereferenceable(40) %ref.tmp) #34
  call void @_ZN5folly7dynamic7destroyEv(ptr noundef nonnull align 8 dereferenceable(40) %ref.tmp) #34
  ret void

lpad:                                             ; preds = %entry
  %1 = landingpad { ptr, i32 }
          cleanup
  br label %ehcleanup

lpad3:                                            ; preds = %invoke.cont
  %2 = landingpad { ptr, i32 }
          cleanup
  call void @_ZN5folly7dynamic7destroyEv(ptr noundef nonnull align 8 dereferenceable(40) %ref.tmp) #34
  br label %ehcleanup

ehcleanup:                                        ; preds = %lpad3, %lpad
  %.pn = phi { ptr, i32 } [ %2, %lpad3 ], [ %1, %lpad ]
  call void @_ZN5folly7dynamic7destroyEv(ptr noundef nonnull align 8 dereferenceable(40) %agg.result) #34
  resume { ptr, i32 } %.pn
}